Certificate:
    Data:
        Version: 3 (0x2)
        Serial Number: 1 (0x1)
        Signature Algorithm: sha256WithRSAEncryption
        Issuer: C=BR, ST=SC, O=TCC, OU=TCC, CN=TCC/emailAddress=jessica.hahn.silva@gmail.com
        Validity
            Not Before: Sep 12 18:44:53 2020 GMT
            Not After : Jun 30 23:59:59 2033 GMT
        Subject: C=BR, ST=SC, O=TCC, OU=TCC, CN=TCC/emailAddress=jessica.hahn.silva@gmail.com
        Subject Public Key Info:
            Public Key Algorithm: rsaEncryption
                RSA Public-Key: (2048 bit)
                Modulus:
                    00:bf:0e:42:9c:81:2a:5a:4e:a7:f6:2b:c3:98:50:
                    0c:47:d8:8d:e9:36:1a:b6:6d:40:51:49:88:c1:c1:
                    ea:03:f2:7a:d3:1c:44:d3:b1:3b:19:5d:39:7e:3a:
                    f8:fe:88:ef:f8:4a:de:87:36:04:cb:6d:d3:73:14:
                    b0:f2:c3:98:ce:85:b2:85:98:80:c4:47:7d:eb:4a:
                    54:92:d7:4d:92:52:0b:e0:12:2e:4a:5c:31:5a:41:
                    05:39:d9:23:aa:c9:13:32:a1:a3:4a:ec:9f:aa:99:
                    b3:30:e1:b3:e2:a0:2f:45:6b:f4:80:79:be:3d:2c:
                    67:d8:49:cc:bd:da:0f:0a:6a:2d:90:85:10:ae:0d:
                    14:43:ce:7e:83:e4:4b:7a:c4:c5:d3:06:33:b2:fb:
                    c0:38:b1:27:8f:55:0c:91:30:71:c0:3e:bc:df:ba:
                    38:b9:99:c1:6d:59:09:f5:ba:b0:ab:3f:22:e7:ff:
                    19:b5:d7:00:3e:f4:9a:fd:dd:47:28:16:2e:f5:72:
                    f7:ff:bd:97:2f:e3:3c:6e:64:5d:8d:8f:46:55:3d:
                    ca:63:32:2b:4d:54:3e:74:05:19:bc:26:35:4c:cf:
                    62:21:df:48:d8:d4:47:76:76:02:90:af:42:da:82:
                    cf:44:20:82:8b:08:c9:39:20:ae:d6:e4:02:ce:52:
                    f6:83
                Exponent: 65537 (0x10001)
        X509v3 extensions:
            X509v3 Subject Key Identifier: 
                A2:B8:6E:6C:A3:DD:FA:EF:A9:3D:80:42:68:AA:2A:68:F1:E4:DB:1B
            X509v3 Authority Key Identifier: 
                keyid:A2:B8:6E:6C:A3:DD:FA:EF:A9:3D:80:42:68:AA:2A:68:F1:E4:DB:1B

            X509v3 Basic Constraints: critical
                CA:TRUE
    Signature Algorithm: sha256WithRSAEncryption
         01:d5:30:8b:e2:3e:7d:c4:62:95:eb:f3:8d:74:33:9e:65:ba:
         d8:dd:56:9e:a5:cb:7d:a1:ad:b7:9f:79:7b:52:87:f7:eb:07:
         c9:fe:4e:54:48:fd:bf:cc:24:04:9a:ab:00:de:a1:d1:65:b1:
         bc:00:a9:c1:31:46:d5:0d:e5:ce:8a:30:af:b2:8c:36:97:72:
         9e:e3:58:a3:5a:31:a0:0b:da:2f:b8:43:97:70:3d:31:b7:02:
         06:1a:b8:4e:32:71:cb:7f:de:85:60:66:a4:5b:7f:3e:a2:8c:
         5d:4a:c8:73:eb:29:ac:46:ec:2c:17:3b:7f:78:bb:50:ab:76:
         b2:81:fb:0b:c4:a8:e4:c8:6d:1a:ac:5d:dd:0f:a5:70:77:14:
         db:0c:18:1e:c1:4a:20:02:c9:b6:17:e5:5f:1d:1a:ef:ff:14:
         fa:ac:0d:53:fe:4b:e8:02:a5:05:a2:fe:cc:5b:e4:bf:94:00:
         8b:fe:d2:76:22:d5:d2:f2:a0:49:48:42:9a:87:e9:f6:ad:84:
         0b:42:08:8e:6b:7e:cb:77:c6:9d:e4:73:80:2c:25:f3:db:0d:
         00:c1:9d:e6:c9:8f:fb:63:ec:9f:ef:09:6e:20:01:80:28:d8:
         c3:01:af:47:32:a5:20:0f:c5:ee:11:0c:af:39:a0:62:93:e9:
         43:58:bb:d1
-----BEGIN CERTIFICATE-----
MIIDsDCCApigAwIBAgIBATANBgkqhkiG9w0BAQsFADBxMQswCQYDVQQGEwJCUjEL
MAkGA1UECAwCU0MxDDAKBgNVBAoMA1RDQzEMMAoGA1UECwwDVENDMQwwCgYDVQQD
DANUQ0MxKzApBgkqhkiG9w0BCQEWHGplc3NpY2EuaGFobi5zaWx2YUBnbWFpbC5j
b20wHhcNMjAwOTEyMTg0NDUzWhcNMzMwNjMwMjM1OTU5WjBxMQswCQYDVQQGEwJC
UjELMAkGA1UECAwCU0MxDDAKBgNVBAoMA1RDQzEMMAoGA1UECwwDVENDMQwwCgYD
VQQDDANUQ0MxKzApBgkqhkiG9w0BCQEWHGplc3NpY2EuaGFobi5zaWx2YUBnbWFp
bC5jb20wggEiMA0GCSqGSIb3DQEBAQUAA4IBDwAwggEKAoIBAQC/DkKcgSpaTqf2
K8OYUAxH2I3pNhq2bUBRSYjBweoD8nrTHETTsTsZXTl+Ovj+iO/4St6HNgTLbdNz
FLDyw5jOhbKFmIDER33rSlSS102SUgvgEi5KXDFaQQU52SOqyRMyoaNK7J+qmbMw
4bPioC9Fa/SAeb49LGfYScy92g8Kai2QhRCuDRRDzn6D5Et6xMXTBjOy+8A4sSeP
VQyRMHHAPrzfuji5mcFtWQn1urCrPyLn/xm11wA+9Jr93UcoFi71cvf/vZcv4zxu
ZF2Nj0ZVPcpjMitNVD50BRm8JjVMz2Ih30jY1Ed2dgKQr0Lags9EIIKLCMk5IK7W
5ALOUvaDAgMBAAGjUzBRMB0GA1UdDgQWBBSiuG5so93676k9gEJoqipo8eTbGzAf
BgNVHSMEGDAWgBSiuG5so93676k9gEJoqipo8eTbGzAPBgNVHRMBAf8EBTADAQH/
MA0GCSqGSIb3DQEBCwUAA4IBAQAB1TCL4j59xGKV6/ONdDOeZbrY3Vaepct9oa23
n3l7Uof36wfJ/k5USP2/zCQEmqsA3qHRZbG8AKnBMUbVDeXOijCvsow2l3Ke41ij
WjGgC9ovuEOXcD0xtwIGGrhOMnHLf96FYGakW38+ooxdSshz6ymsRuwsFzt/eLtQ
q3aygfsLxKjkyG0arF3dD6VwdxTbDBgewUogAsm2F+VfHRrv/xT6rA1T/kvoAqUF
ov7MW+S/lACL/tJ2ItXS8qBJSEKah+n2rYQLQgiOa37Ld8ad5HOALCXz2w0AwZ3m
yY/7Y+yf7wluIAGAKNjDAa9HMqUgD8XuEQyvOaBik+lDWLvR
-----END CERTIFICATE-----
RSA Private-Key: (2048 bit, 2 primes)
modulus:
    00:bf:0e:42:9c:81:2a:5a:4e:a7:f6:2b:c3:98:50:
    0c:47:d8:8d:e9:36:1a:b6:6d:40:51:49:88:c1:c1:
    ea:03:f2:7a:d3:1c:44:d3:b1:3b:19:5d:39:7e:3a:
    f8:fe:88:ef:f8:4a:de:87:36:04:cb:6d:d3:73:14:
    b0:f2:c3:98:ce:85:b2:85:98:80:c4:47:7d:eb:4a:
    54:92:d7:4d:92:52:0b:e0:12:2e:4a:5c:31:5a:41:
    05:39:d9:23:aa:c9:13:32:a1:a3:4a:ec:9f:aa:99:
    b3:30:e1:b3:e2:a0:2f:45:6b:f4:80:79:be:3d:2c:
    67:d8:49:cc:bd:da:0f:0a:6a:2d:90:85:10:ae:0d:
    14:43:ce:7e:83:e4:4b:7a:c4:c5:d3:06:33:b2:fb:
    c0:38:b1:27:8f:55:0c:91:30:71:c0:3e:bc:df:ba:
    38:b9:99:c1:6d:59:09:f5:ba:b0:ab:3f:22:e7:ff:
    19:b5:d7:00:3e:f4:9a:fd:dd:47:28:16:2e:f5:72:
    f7:ff:bd:97:2f:e3:3c:6e:64:5d:8d:8f:46:55:3d:
    ca:63:32:2b:4d:54:3e:74:05:19:bc:26:35:4c:cf:
    62:21:df:48:d8:d4:47:76:76:02:90:af:42:da:82:
    cf:44:20:82:8b:08:c9:39:20:ae:d6:e4:02:ce:52:
    f6:83
publicExponent: 65537 (0x10001)
privateExponent:
    3f:2a:14:c5:af:42:74:56:da:da:dd:3f:2e:45:10:
    ba:54:13:1e:ce:1f:68:be:97:ec:07:f6:a9:b0:55:
    90:f6:82:ba:f6:f6:9e:52:52:ea:a0:d2:98:34:21:
    0b:ed:f4:00:4f:a8:60:65:70:92:5c:fd:f2:67:1d:
    d5:34:eb:79:23:e4:90:9c:89:bd:da:b0:fb:b0:38:
    63:cf:c0:ba:a6:5b:7c:ba:26:09:b9:8f:2b:7a:a1:
    a2:ad:72:48:4d:70:06:66:40:19:4e:3f:bf:64:4f:
    44:d2:e9:e8:fb:f2:84:ee:1b:08:ba:b7:35:7c:4f:
    dc:c7:11:64:97:0a:2f:f3:b5:c0:a5:1d:51:56:78:
    48:66:77:2a:77:78:0a:1d:e4:49:e1:77:d2:be:f1:
    cb:0a:de:bd:f5:77:34:0b:81:f3:8a:e1:4a:03:cd:
    ca:c9:7e:8e:3b:6c:f4:db:02:86:18:26:c5:69:6d:
    3b:e1:8f:94:99:4d:32:e1:e6:29:c9:e4:3c:1b:21:
    2d:4e:57:45:88:eb:5e:2b:a3:14:cd:cd:9d:f5:f1:
    79:b2:e2:bb:d6:fa:65:2b:9e:c8:cb:52:96:8f:f8:
    57:d2:4c:67:4e:53:9c:56:93:40:2d:90:2d:05:b9:
    55:82:70:90:fd:6a:89:83:e5:af:9f:63:5b:5a:0b:
    19
prime1:
    00:f2:70:8c:6c:19:e7:9d:2e:60:31:11:cf:84:fa:
    0a:e3:32:60:20:bb:78:9f:54:cf:ec:1e:cb:de:52:
    25:69:b0:48:cd:84:fb:c1:c9:01:a7:29:59:55:6e:
    a7:1f:fe:92:06:e9:d4:bd:e3:ca:65:b1:c5:2b:3e:
    1a:1e:5a:5f:9c:aa:d9:8d:18:1a:3b:ae:7b:ea:f8:
    72:43:ba:20:ec:09:54:8f:87:e8:b9:d1:d5:73:d2:
    57:e3:00:f2:25:7a:49:ce:25:e3:c4:03:89:82:2b:
    9b:53:de:5b:4e:da:df:82:31:c2:e1:01:bf:ca:ed:
    0b:74:39:30:dd:2b:d7:d9:fd
prime2:
    00:c9:bd:f4:33:68:47:6d:32:28:17:03:87:d6:72:
    49:eb:6b:b5:2a:64:d4:47:de:60:be:91:15:94:2b:
    84:17:11:2a:f6:ae:5e:f3:e9:ff:75:3b:ed:e5:bf:
    17:bb:3e:53:78:0f:e2:cc:55:42:6d:a6:df:79:3f:
    0e:e4:f0:d3:ca:48:9f:31:1f:93:b5:10:f1:b8:ff:
    0c:9c:79:24:01:a9:62:e5:d0:a3:1a:8f:aa:cf:ec:
    4a:18:ba:41:c3:4e:f6:f8:3d:1f:ba:d5:54:a9:36:
    2c:e8:c5:6f:71:62:ec:17:1e:ea:89:c8:5a:da:09:
    82:cd:00:0f:7b:aa:0c:ba:7f
exponent1:
    00:bc:e9:3c:52:43:c1:39:b6:58:58:04:13:da:ff:
    67:9a:6f:b7:7d:e9:f6:ec:d8:8e:87:e3:db:61:ea:
    4a:a2:d7:2d:73:8f:ab:08:ee:52:ee:69:86:e5:ce:
    2a:46:00:fc:d2:8c:44:2c:8f:22:38:29:d4:84:84:
    88:9f:9c:36:22:82:f2:b0:41:d6:b7:28:98:00:99:
    05:98:86:a1:7e:ab:2a:8c:09:10:2c:33:38:8b:5e:
    9d:03:12:ca:9c:af:74:71:41:0f:00:be:ec:d8:54:
    98:5d:3a:c7:95:63:71:84:26:b8:3e:d2:39:1b:ab:
    a8:20:31:2c:45:3b:13:a0:15
exponent2:
    2f:cf:e1:0c:3d:ee:8f:a6:8f:71:c4:d8:70:ae:6d:
    6e:69:fc:69:ab:b3:d3:c4:94:51:15:b9:73:80:4c:
    b1:da:d3:bf:da:db:8e:1b:2a:fb:f1:d4:13:db:12:
    18:c2:50:ad:e7:b5:ec:8f:58:4a:fc:7d:82:12:bb:
    c8:ee:7a:83:3a:6a:e0:0d:87:c8:25:d7:e3:ec:2e:
    64:f7:20:dd:73:f3:88:5b:c6:0c:09:78:86:06:8e:
    19:06:2b:87:ca:33:25:e9:f6:97:24:f0:07:9a:5b:
    52:5f:58:66:1a:f7:b1:13:16:aa:c8:dd:1f:47:99:
    c4:53:fb:57:67:99:d4:a9
coefficient:
    6b:59:2b:09:63:55:e9:f8:19:87:2b:1d:e3:eb:3a:
    b1:11:6b:6c:6b:4c:11:a2:57:b3:1d:23:a6:fa:65:
    3e:0f:14:13:14:80:54:37:4f:8a:b5:1d:67:d0:d6:
    57:52:de:7d:b8:7f:e9:d4:24:d6:03:88:ad:89:3b:
    fd:9b:ef:3a:87:80:49:bc:81:84:81:4c:ff:dc:f3:
    e5:cd:d9:d3:d0:62:48:61:e1:94:96:28:c0:55:6e:
    ce:73:6c:5a:49:7a:05:fa:e2:18:a1:95:ce:18:d5:
    18:10:77:d3:99:52:fe:57:31:eb:f9:ed:57:ae:0f:
    d9:7a:fb:c1:08:7f:ce:02
-----BEGIN RSA PRIVATE KEY-----
MIIEowIBAAKCAQEAvw5CnIEqWk6n9ivDmFAMR9iN6TYatm1AUUmIwcHqA/J60xxE
07E7GV05fjr4/ojv+ErehzYEy23TcxSw8sOYzoWyhZiAxEd960pUktdNklIL4BIu
SlwxWkEFOdkjqskTMqGjSuyfqpmzMOGz4qAvRWv0gHm+PSxn2EnMvdoPCmotkIUQ
rg0UQ85+g+RLesTF0wYzsvvAOLEnj1UMkTBxwD6837o4uZnBbVkJ9bqwqz8i5/8Z
tdcAPvSa/d1HKBYu9XL3/72XL+M8bmRdjY9GVT3KYzIrTVQ+dAUZvCY1TM9iId9I
2NRHdnYCkK9C2oLPRCCCiwjJOSCu1uQCzlL2gwIDAQABAoIBAD8qFMWvQnRW2trd
Py5FELpUEx7OH2i+l+wH9qmwVZD2grr29p5SUuqg0pg0IQvt9ABPqGBlcJJc/fJn
HdU063kj5JCcib3asPuwOGPPwLqmW3y6Jgm5jyt6oaKtckhNcAZmQBlOP79kT0TS
6ej78oTuGwi6tzV8T9zHEWSXCi/ztcClHVFWeEhmdyp3eAod5Enhd9K+8csK3r31
dzQLgfOK4UoDzcrJfo47bPTbAoYYJsVpbTvhj5SZTTLh5inJ5DwbIS1OV0WI614r
oxTNzZ318Xmy4rvW+mUrnsjLUpaP+FfSTGdOU5xWk0AtkC0FuVWCcJD9aomD5a+f
Y1taCxkCgYEA8nCMbBnnnS5gMRHPhPoK4zJgILt4n1TP7B7L3lIlabBIzYT7wckB
pylZVW6nH/6SBunUvePKZbHFKz4aHlpfnKrZjRgaO6576vhyQ7og7AlUj4foudHV
c9JX4wDyJXpJziXjxAOJgiubU95bTtrfgjHC4QG/yu0LdDkw3SvX2f0CgYEAyb30
M2hHbTIoFwOH1nJJ62u1KmTUR95gvpEVlCuEFxEq9q5e8+n/dTvt5b8Xuz5TeA/i
zFVCbabfeT8O5PDTykifMR+TtRDxuP8MnHkkAali5dCjGo+qz+xKGLpBw072+D0f
utVUqTYs6MVvcWLsFx7qicha2gmCzQAPe6oMun8CgYEAvOk8UkPBObZYWAQT2v9n
mm+3fen27NiOh+PbYepKotctc4+rCO5S7mmG5c4qRgD80oxELI8iOCnUhISIn5w2
IoLysEHWtyiYAJkFmIahfqsqjAkQLDM4i16dAxLKnK90cUEPAL7s2FSYXTrHlWNx
hCa4PtI5G6uoIDEsRTsToBUCgYAvz+EMPe6Ppo9xxNhwrm1uafxpq7PTxJRRFblz
gEyx2tO/2tuOGyr78dQT2xIYwlCt57Xsj1hK/H2CErvI7nqDOmrgDYfIJdfj7C5k
9yDdc/OIW8YMCXiGBo4ZBiuHyjMl6faXJPAHmltSX1hmGvexExaqyN0fR5nEU/tX
Z5nUqQKBgGtZKwljVen4GYcrHePrOrERa2xrTBGiV7MdI6b6ZT4PFBMUgFQ3T4q1
HWfQ1ldS3n24f+nUJNYDiK2JO/2b7zqHgEm8gYSBTP/c8+XN2dPQYkhh4ZSWKMBV
bs5zbFpJegX64hihlc4Y1RgQd9OZUv5XMev57VeuD9l6+8EIf84C
-----END RSA PRIVATE KEY-----
